; Function Attrs: mustprogress uwtable
define internal noundef range(i32 -1, 2) i32 @_ZL12luauF_rawgetP9lua_StateP10lua_TValueS2_iS2_i(ptr readnone captures(none) %0, ptr noundef writeonly captures(none) %1, ptr noundef readonly captures(none) %2, i32 noundef %3, ptr noundef %4, i32 noundef %5) #8 {
  %7 = icmp sgt i32 %5, 1
  %8 = icmp slt i32 %3, 2
  %or.cond = and i1 %8, %7
  br i1 %or.cond, label %9, label %16

9:                                                ; preds = %6
  %10 = getelementptr inbounds nuw i8, ptr %2, i64 12
  %11 = load i32, ptr %10, align 4, !tbaa !4
  %12 = icmp eq i32 %11, 6
  br i1 %12, label %13, label %16

13:                                               ; preds = %9
  %14 = load ptr, ptr %2, align 8, !tbaa !9
  %15 = tail call noundef ptr @_Z8luaH_getP8LuaTablePK10lua_TValue(ptr noundef %14, ptr noundef %4)
  tail call void @llvm.memcpy.p0.p0.i64(ptr noundef nonnull align 8 dereferenceable(16) %1, ptr noundef nonnull align 8 dereferenceable(16) %15, i64 16, i1 false), !tbaa.struct !56
  br label %16

16:                                               ; preds = %6, %9, %13
  %.0 = phi i32 [ 1, %13 ], [ -1, %9 ], [ -1, %6 ]
  ret i32 %.0
}